; Function Attrs: nofree norecurse nosync nounwind null_pointer_is_valid sspstrong memory(read, inaccessiblemem: none) uwtable
define hidden ptr @State_find(ptr noundef readonly captures(address_is_null) %0) local_unnamed_addr #8 {
  %2 = load ptr, ptr @x3a, align 8
  %3 = icmp eq ptr %2, null
  br i1 %3, label %.critedge, label %4

4:                                                ; preds = %1
  %.not6.i = icmp eq ptr %0, null
  br i1 %.not6.i, label %statehash.exit.thread, label %.lr.ph.i

.lr.ph.i:                                         ; preds = %4, %.lr.ph.i
  %.08.i = phi i32 [ %13, %.lr.ph.i ], [ 0, %4 ]
  %.057.i = phi ptr [ %15, %.lr.ph.i ], [ %0, %4 ]
  %5 = mul i32 %.08.i, 571
  %6 = load ptr, ptr %.057.i, align 8
  %7 = getelementptr inbounds nuw i8, ptr %6, i64 88
  %8 = load i32, ptr %7, align 8
  %9 = mul i32 %8, 37
  %10 = add i32 %9, %5
  %11 = getelementptr inbounds nuw i8, ptr %.057.i, i64 8
  %12 = load i32, ptr %11, align 8
  %13 = add i32 %10, %12
  %14 = getelementptr inbounds nuw i8, ptr %.057.i, i64 64
  %15 = load ptr, ptr %14, align 8
  %.not.i = icmp eq ptr %15, null
  br i1 %.not.i, label %statehash.exit, label %.lr.ph.i, !llvm.loop !47

statehash.exit:                                   ; preds = %.lr.ph.i
  %16 = load i32, ptr %2, align 8
  %17 = add i32 %16, -1
  %18 = and i32 %17, %13
  %19 = getelementptr inbounds nuw i8, ptr %2, i64 16
  %20 = load ptr, ptr %19, align 8
  %21 = zext i32 %18 to i64
  %22 = getelementptr ptr, ptr %20, i64 %21
  %.014 = load ptr, ptr %22, align 8
  %.not15 = icmp eq ptr %.014, null
  br i1 %.not15, label %.critedge, label %.lr.ph.split

statehash.exit.thread:                            ; preds = %4
  %23 = getelementptr inbounds nuw i8, ptr %2, i64 16
  %24 = load ptr, ptr %23, align 8
  %.01428 = load ptr, ptr %24, align 8
  %.not1529 = icmp eq ptr %.01428, null
  br i1 %.not1529, label %.critedge, label %.critedge.thread.i.us

.critedge.thread.i.us:                            ; preds = %statehash.exit.thread, %statecmp.exit.thread.us
  %.016.us = phi ptr [ %.0.us, %statecmp.exit.thread.us ], [ %.01428, %statehash.exit.thread ]
  %25 = getelementptr inbounds nuw i8, ptr %.016.us, i64 8
  %26 = load ptr, ptr %25, align 8
  %.not18 = icmp eq ptr %26, null
  br i1 %.not18, label %.split.us, label %statecmp.exit.thread.us

statecmp.exit.thread.us:                          ; preds = %.critedge.thread.i.us
  %27 = getelementptr inbounds nuw i8, ptr %.016.us, i64 16
  %.0.us = load ptr, ptr %27, align 8
  %.not.us = icmp eq ptr %.0.us, null
  br i1 %.not.us, label %.critedge, label %.critedge.thread.i.us, !llvm.loop !48

.lr.ph.split:                                     ; preds = %statehash.exit, %statecmp.exit.thread
  %.016 = phi ptr [ %.0, %statecmp.exit.thread ], [ %.014, %statehash.exit ]
  %28 = getelementptr inbounds nuw i8, ptr %.016, i64 8
  %29 = load ptr, ptr %28, align 8
  %.not19 = icmp eq ptr %29, null
  br i1 %.not19, label %statecmp.exit.thread, label %.lr.ph.i9

.lr.ph.i9:                                        ; preds = %.lr.ph.split, %44
  %.01624.i = phi ptr [ %48, %44 ], [ %0, %.lr.ph.split ]
  %.01723.i = phi ptr [ %46, %44 ], [ %29, %.lr.ph.split ]
  %30 = load ptr, ptr %.01723.i, align 8
  %31 = getelementptr inbounds nuw i8, ptr %30, i64 88
  %32 = load i32, ptr %31, align 8
  %33 = load ptr, ptr %.01624.i, align 8
  %34 = getelementptr inbounds nuw i8, ptr %33, i64 88
  %35 = load i32, ptr %34, align 8
  %36 = sub i32 %32, %35
  %37 = icmp eq i32 %36, 0
  br i1 %37, label %38, label %44

38:                                               ; preds = %.lr.ph.i9
  %39 = getelementptr inbounds nuw i8, ptr %.01723.i, i64 8
  %40 = load i32, ptr %39, align 8
  %41 = getelementptr inbounds nuw i8, ptr %.01624.i, i64 8
  %42 = load i32, ptr %41, align 8
  %43 = sub i32 %40, %42
  br label %44

44:                                               ; preds = %38, %.lr.ph.i9
  %.1.i = phi i32 [ %43, %38 ], [ %36, %.lr.ph.i9 ]
  %.1.fr.i = freeze i32 %.1.i
  %45 = getelementptr inbounds nuw i8, ptr %.01723.i, i64 64
  %46 = load ptr, ptr %45, align 8
  %47 = getelementptr inbounds nuw i8, ptr %.01624.i, i64 64
  %48 = load ptr, ptr %47, align 8
  %49 = icmp eq i32 %.1.fr.i, 0
  %50 = icmp ne ptr %46, null
  %or.cond.i = select i1 %49, i1 %50, i1 false
  %51 = icmp ne ptr %48, null
  %or.cond3.i = select i1 %or.cond.i, i1 %51, i1 false
  br i1 %or.cond3.i, label %.lr.ph.i9, label %.critedge.i, !llvm.loop !49

.critedge.i:                                      ; preds = %44
  %not. = xor i1 %49, true
  %52 = select i1 %not., i1 true, i1 %51
  %53 = select i1 %52, i1 true, i1 %50
  br i1 %53, label %statecmp.exit.thread, label %.split.us

statecmp.exit.thread:                             ; preds = %.lr.ph.split, %.critedge.i
  %54 = getelementptr inbounds nuw i8, ptr %.016, i64 16
  %.0 = load ptr, ptr %54, align 8
  %.not = icmp eq ptr %.0, null
  br i1 %.not, label %.critedge, label %.lr.ph.split, !llvm.loop !48

.split.us:                                        ; preds = %.critedge.i, %.critedge.thread.i.us
  %.us-phi = phi ptr [ %.016.us, %.critedge.thread.i.us ], [ %.016, %.critedge.i ]
  %55 = load ptr, ptr %.us-phi, align 8
  br label %.critedge

.critedge:                                        ; preds = %statecmp.exit.thread, %statecmp.exit.thread.us, %statehash.exit.thread, %statehash.exit, %.split.us, %1
  %.08 = phi ptr [ null, %1 ], [ %55, %.split.us ], [ null, %statehash.exit ], [ null, %statehash.exit.thread ], [ null, %statecmp.exit.thread.us ], [ null, %statecmp.exit.thread ]
  ret ptr %.08
}